target datalayout = "e-m:e-p270:32:32-p271:32:32-p272:64:64-i64:64-i128:128-f80:128-n8:16:32:64-S128"
target triple = "x86_64-pc-linux-gnu"

@.str.5 = private unnamed_addr constant [4 x i8] c"%lu\00", align 1
@.str.17 = private unnamed_addr constant [3 x i8] c", \00", align 1

; Function Attrs: nounwind uwtable
define void @h5tools_print_dims(ptr noundef %0, ptr noundef %1, i32 noundef %2) #0 {
  %4 = alloca ptr, align 8
  %5 = alloca ptr, align 8
  %6 = alloca i32, align 4
  %7 = alloca i32, align 4
  store ptr %0, ptr %4, align 8, !tbaa !35
  store ptr %1, ptr %5, align 8, !tbaa !37
  store i32 %2, ptr %6, align 4, !tbaa !16
  call void @llvm.lifetime.start.p0(i64 4, ptr %7) #10
  store i32 0, ptr %7, align 4, !tbaa !16
  br label %8

8:                                                ; preds = %28, %3
  %9 = load i32, ptr %7, align 4, !tbaa !16
  %10 = load i32, ptr %6, align 4, !tbaa !16
  %11 = icmp slt i32 %9, %10
  br i1 %11, label %12, label %31

12:                                               ; preds = %8
  %13 = load ptr, ptr %4, align 8, !tbaa !35
  %14 = load ptr, ptr %5, align 8, !tbaa !37
  %15 = load i32, ptr %7, align 4, !tbaa !16
  %16 = sext i32 %15 to i64
  %17 = getelementptr inbounds i64, ptr %14, i64 %16
  %18 = load i64, ptr %17, align 8, !tbaa !14
  %19 = call ptr (ptr, ptr, ...) @h5tools_str_append(ptr noundef %13, ptr noundef @.str.5, i64 noundef %18)
  %20 = load i32, ptr %7, align 4, !tbaa !16
  %21 = add nsw i32 %20, 1
  %22 = load i32, ptr %6, align 4, !tbaa !16
  %23 = icmp ne i32 %21, %22
  br i1 %23, label %24, label %27

24:                                               ; preds = %12
  %25 = load ptr, ptr %4, align 8, !tbaa !35
  %26 = call ptr (ptr, ptr, ...) @h5tools_str_append(ptr noundef %25, ptr noundef @.str.17)
  br label %27

27:                                               ; preds = %24, %12
  br label %28

28:                                               ; preds = %27
  %29 = load i32, ptr %7, align 4, !tbaa !16
  %30 = add nsw i32 %29, 1
  store i32 %30, ptr %7, align 4, !tbaa !16
  br label %8, !llvm.loop !161

31:                                               ; preds = %8
  call void @llvm.lifetime.end.p0(i64 4, ptr %7) #10
  ret void
}