; Function Attrs: nounwind uwtable
define void @h5tools_print_dims(ptr noundef %0, ptr noundef readonly captures(none) %1, i32 noundef %2) local_unnamed_addr #1 {
  %4 = icmp sgt i32 %2, 0
  br i1 %4, label %.lr.ph.preheader, label %._crit_edge

.lr.ph.preheader:                                 ; preds = %3
  %5 = zext nneg i32 %2 to i64
  br label %.lr.ph

.lr.ph:                                           ; preds = %.lr.ph.preheader, %11
  %indvars.iv = phi i64 [ 0, %.lr.ph.preheader ], [ %indvars.iv.next, %11 ]
  %6 = getelementptr inbounds nuw i64, ptr %1, i64 %indvars.iv
  %7 = load i64, ptr %6, align 8, !tbaa !19
  %8 = tail call ptr (ptr, ptr, ...) @h5tools_str_append(ptr noundef %0, ptr noundef nonnull @.str.5, i64 noundef %7) #12
  %indvars.iv.next = add nuw nsw i64 %indvars.iv, 1
  %.not = icmp eq i64 %indvars.iv.next, %5
  br i1 %.not, label %11, label %9

9:                                                ; preds = %.lr.ph
  %10 = tail call ptr (ptr, ptr, ...) @h5tools_str_append(ptr noundef %0, ptr noundef nonnull @.str.17) #12
  br label %11

11:                                               ; preds = %.lr.ph, %9
  %exitcond.not = icmp eq i64 %indvars.iv.next, %5
  br i1 %exitcond.not, label %._crit_edge, label %.lr.ph, !llvm.loop !159

._crit_edge:                                      ; preds = %11, %3
  ret void
}